; Function Attrs: mustprogress uwtable
define void @_ZN9grpc_core15metadata_detail18DebugStringBuilder3AddESt17basic_string_viewIcSt11char_traitsIcEES5_(ptr noundef nonnull align 8 dereferenceable(32) %this, i64 %key.coerce0, ptr %key.coerce1, i64 %value.coerce0, ptr %value.coerce1) local_unnamed_addr #3 align 2 personality ptr @__gxx_personality_v0 {
entry:
  %ref.tmp = alloca %"class.absl::lts_20230802::AlphaNum", align 8
  %ref.tmp5 = alloca %"class.std::__cxx11::basic_string", align 8
  %ref.tmp6 = alloca %"class.absl::lts_20230802::AlphaNum", align 8
  %ref.tmp8 = alloca %"class.absl::lts_20230802::AlphaNum", align 8
  %ref.tmp9 = alloca %"class.std::__cxx11::basic_string", align 8
  %call = tail call noundef zeroext i1 @_ZNKSt7__cxx1112basic_stringIcSt11char_traitsIcESaIcEE5emptyEv(ptr noundef nonnull align 8 dereferenceable(32) %this) #18
  br i1 %call, label %invoke.cont7, label %if.then

if.then:                                          ; preds = %entry
  %call3 = tail call noundef nonnull align 8 dereferenceable(32) ptr @_ZNSt7__cxx1112basic_stringIcSt11char_traitsIcESaIcEE6appendEPKc(ptr noundef nonnull align 8 dereferenceable(32) %this, ptr noundef nonnull @.str)
  br label %invoke.cont7

invoke.cont7:                                     ; preds = %entry, %if.then
  call void @_ZN4absl12lts_202308027CEscapeB5cxx11ESt17basic_string_viewIcSt11char_traitsIcEE(ptr nonnull sret(%"class.std::__cxx11::basic_string") align 8 %ref.tmp5, i64 %key.coerce0, ptr %key.coerce1)
  %call.i = call { i64, ptr } @_ZNKSt7__cxx1112basic_stringIcSt11char_traitsIcESaIcEEcvSt17basic_string_viewIcS2_EEv(ptr noundef nonnull align 8 dereferenceable(32) %ref.tmp5) #18
  %0 = extractvalue { i64, ptr } %call.i, 0
  store i64 %0, ptr %ref.tmp, align 8
  %1 = getelementptr inbounds i8, ptr %ref.tmp, i64 8
  %2 = extractvalue { i64, ptr } %call.i, 1
  store ptr %2, ptr %1, align 8
  store i64 2, ptr %ref.tmp6, align 8
  %3 = getelementptr inbounds i8, ptr %ref.tmp6, i64 8
  store ptr @.str.1, ptr %3, align 8
  invoke void @_ZN4absl12lts_202308027CEscapeB5cxx11ESt17basic_string_viewIcSt11char_traitsIcEE(ptr nonnull sret(%"class.std::__cxx11::basic_string") align 8 %ref.tmp9, i64 %value.coerce0, ptr %value.coerce1)
          to label %invoke.cont11 unwind label %lpad

invoke.cont11:                                    ; preds = %invoke.cont7
  %call.i2 = call { i64, ptr } @_ZNKSt7__cxx1112basic_stringIcSt11char_traitsIcESaIcEEcvSt17basic_string_viewIcS2_EEv(ptr noundef nonnull align 8 dereferenceable(32) %ref.tmp9) #18
  %4 = extractvalue { i64, ptr } %call.i2, 0
  store i64 %4, ptr %ref.tmp8, align 8
  %5 = getelementptr inbounds i8, ptr %ref.tmp8, i64 8
  %6 = extractvalue { i64, ptr } %call.i2, 1
  store ptr %6, ptr %5, align 8
  invoke void @_ZN4absl12lts_202308029StrAppendEPNSt7__cxx1112basic_stringIcSt11char_traitsIcESaIcEEERKNS0_8AlphaNumESA_SA_(ptr noundef nonnull %this, ptr noundef nonnull align 8 dereferenceable(48) %ref.tmp, ptr noundef nonnull align 8 dereferenceable(48) %ref.tmp6, ptr noundef nonnull align 8 dereferenceable(48) %ref.tmp8)
          to label %invoke.cont14 unwind label %lpad12

invoke.cont14:                                    ; preds = %invoke.cont11
  call void @_ZNSt7__cxx1112basic_stringIcSt11char_traitsIcESaIcEED1Ev(ptr noundef nonnull align 8 dereferenceable(32) %ref.tmp9) #18
  call void @_ZNSt7__cxx1112basic_stringIcSt11char_traitsIcESaIcEED1Ev(ptr noundef nonnull align 8 dereferenceable(32) %ref.tmp5) #18
  ret void

lpad:                                             ; preds = %invoke.cont7
  %7 = landingpad { ptr, i32 }
          cleanup
  br label %ehcleanup

lpad12:                                           ; preds = %invoke.cont11
  %8 = landingpad { ptr, i32 }
          cleanup
  call void @_ZNSt7__cxx1112basic_stringIcSt11char_traitsIcESaIcEED1Ev(ptr noundef nonnull align 8 dereferenceable(32) %ref.tmp9) #18
  br label %ehcleanup

ehcleanup:                                        ; preds = %lpad12, %lpad
  %.pn = phi { ptr, i32 } [ %8, %lpad12 ], [ %7, %lpad ]
  call void @_ZNSt7__cxx1112basic_stringIcSt11char_traitsIcESaIcEED1Ev(ptr noundef nonnull align 8 dereferenceable(32) %ref.tmp5) #18
  resume { ptr, i32 } %.pn
}